; Function Attrs: inlinehint nounwind sspstrong uwtable
define internal void @gen_helper_gvec_rotl16i(ptr noundef %0, ptr noundef %1, ptr noundef %2) #6 {
  %4 = load ptr, ptr @helper_info_gvec_rotl16i, align 8
  %5 = tail call align 8 ptr @llvm.threadlocal.address.p0(ptr align 8 @tcg_ctx)
  %6 = load ptr, ptr %5, align 8
  %7 = ptrtoint ptr %0 to i64
  %8 = getelementptr inbounds nuw i8, ptr %6, i64 %7
  %9 = ptrtoint ptr %1 to i64
  %10 = getelementptr inbounds nuw i8, ptr %6, i64 %9
  %11 = ptrtoint ptr %2 to i64
  %12 = getelementptr inbounds nuw i8, ptr %6, i64 %11
  tail call void @tcg_gen_call3(ptr noundef %4, ptr noundef nonnull @helper_info_gvec_rotl16i, ptr noundef null, ptr noundef %8, ptr noundef %10, ptr noundef %12) #10
  ret void
}